; Function Attrs: nounwind sspstrong uwtable
define internal void @compare_set_notify_dev(ptr noundef %obj, ptr noundef %value, ptr readnone captures(none) %errp) #0 {
entry:
  %call.i = tail call ptr @object_dynamic_cast_assert(ptr noundef %obj, ptr noundef nonnull @.str.1, ptr noundef nonnull @.str, i32 noundef 40, ptr noundef nonnull @__func__.COLO_COMPARE) #16
  %notify_dev = getelementptr inbounds nuw i8, ptr %call.i, i64 64
  %0 = load ptr, ptr %notify_dev, align 8
  tail call void @g_free(ptr noundef %0) #16
  %call1 = tail call noalias ptr @g_strdup(ptr noundef %value) #16
  store ptr %call1, ptr %notify_dev, align 8
  ret void
}